0000  00 38             	COM	$38,X		; 00 38
0002  01 38             	DEC	$38,X		; 01 38
0004  02 38             	NEG	$38,X		; 02 38
0006  03 38             	INC	$38,X		; 03 38
0008  04 38             	ASL	$38,X		; 04 38
000A  05 38             	CLR	$38,X		; 05 38
000C  06 38             	TST	$38,X		; 06 38
000E  07                	FCB	$07		; 07
000F  08 4D 3136        	BCLR	$3136,X,#$4D	; 08 4D 3136
0013  09 4D 3136        	BSET	$3136,X,#$4D	; 09 4D 3136
0017  0A 4D 3136 FB     	BRCLR	$3136,X,#$4D,.	; 0A 4D 3136 FB
001C  0B 4D 3136 FB     	BRSET	$3136,X,#$4D,.	; 0B 4D 3136 FB
0021  0C 38             	ROL	$38,X		; 0C 38
0023  0D 38             	ASR	$38,X		; 0D 38
0025  0E 38             	ROR	$38,X		; 0E 38
0027  0F 38             	LSR	$38,X		; 0F 38

0029  10 38             	COM	$38,Y		; 10 38
002B  11 38             	DEC	$38,Y		; 11 38
002D  12 38             	NEG	$38,Y		; 12 38
002F  13 38             	INC	$38,Y		; 13 38
0031  14 38             	ASL	$38,Y		; 14 38
0033  15 38             	CLR	$38,Y		; 15 38
0035  16 38             	TST	$38,Y		; 16 38
0037  17                	FCB	$17		; 17 - prebyte
0038  18 4D 3136        	BCLR	$3136,Y,#$4D	; 18 4D 3136
003C  19 4D 3136        	BSET	$3136,Y,#$4D	; 19 4D 3136
0040  1A 4D 3136 FB     	BRCLR	$3136,Y,#$4D,.	; 1A 4D 3136 FB
0045  1B 4D 3136 FB     	BRSET	$3136,Y,#$4D,.	; 1B 4D 3136 FB
004A  1C 38             	ROL	$38,Y		; 1C 38
004C  1D 38             	ASR	$38,Y		; 1D 38
004E  1E 38             	ROR	$38,Y		; 1E 38
0050  1F 38             	LSR	$38,Y		; 1F 38

0052  20 38             	COM	$38,Z		; 20 38
0054  21 38             	DEC	$38,Z		; 21 38
0056  22 38             	NEG	$38,Z		; 22 38
0058  23 38             	INC	$38,Z		; 23 38
005A  24 38             	ASL	$38,Z		; 24 38
005C  25 38             	CLR	$38,Z		; 25 38
005E  26 38             	TST	$38,Z		; 26 38
0060  27                	FCB	$27		; 27 - prebyte
0061  28 4D 3136        	BCLR	$3136,Z,#$4D	; 28 4D 3136
0065  29 4D 3136        	BSET	$3136,Z,#$4D	; 29 4D 3136
0069  2A 4D 3136 FB     	BRCLR	$3136,Z,#$4D,.	; 2A 4D 3136 FB
006E  2B 4D 3136 FB     	BRSET	$3136,Z,#$4D,.	; 2B 4D 3136 FB
0073  2C 38             	ROL	$38,Z		; 2C 38
0075  2D 38             	ASR	$38,Z		; 2D 38
0077  2E 38             	ROR	$38,Z		; 2E 38
0079  2F 38             	LSR	$38,Z		; 2F 38

007B  30 38 3136        	MOVB	$38,X,$3136	; 30 38 3136
007F  31 38 3136        	MOVW	$38,X,$3136	; 31 38 3136
0083  32 38 3136        	MOVB	$3136,$38,X	; 32 38 3136
0087  33 38 3136        	MOVW	$3136,$38,X	; 33 38 3136
008B  34 7F             	PSHM	D,E,X,Y,Z,K,CCR	; 34 7F
008D  35 7F             	PULM	CCR,K,Z,Y,X,E,D	; 35 7F
008F  36 FE             	BSR	.		; 36 FE
0091  37                	FCB	$37		; 37 - prebyte
0092  38 4D 3136        	BCLR	$3136,#$4D	; 38 4D 3136
0096  39 4D 3136        	BSET	$3136,#$4D	; 39 4D 3136
009A  3A 4D 3136 FB     	BRCLR	$3136,#$4D,.	; 3A 4D 3136 FB
009F  3B 4D 3136 FB     	BRSET	$3136,#$4D,.	; 3B 4D 3136 FB
00A4  3C 49             	AIX	#$49		; 3C 49
00A6  3D 49             	AIY	#$49		; 3D 49
00A8  3E 49             	AIZ	#$49		; 3E 49
00AA  3F 49             	AIS	#$49		; 3F 49

00AC  40 38             	SUBA	$38,X		; 40 38
00AE  41 38             	ADDA	$38,X		; 41 38
00B0  42 38             	SBCA	$38,X		; 42 38
00B2  43 38             	ADCA	$38,X		; 43 38
00B4  44 38             	EORA	$38,X		; 44 38
00B6  45 38             	LDAA	$38,X		; 45 38
00B8  46 38             	ANDA	$38,X		; 46 38
00BA  47 38             	ORAA	$38,X		; 47 38
00BC  48 38             	CMPA	$38,X		; 48 38
00BE  49 38             	BITA	$38,X		; 49 38
00C0  4A 38             	STAA	$38,X		; 4A 38
00C2  4B 013230         	JMP	$13230,X	; 4B 013230
00C6  4C 38             	CPX	$38,X		; 4C 38
00C8  4D 38             	CPY	$38,X		; 4D 38
00CA  4E 38             	CPZ	$38,X		; 4E 38
00CC  4F 38             	CPS	$38,X		; 4F 38

00CE  50 38             	SUBA	$38,Y		; 50 38
00D0  51 38             	ADDA	$38,Y		; 51 38
00D2  52 38             	SBCA	$38,Y		; 52 38
00D4  53 38             	ADCA	$38,Y		; 53 38
00D6  54 38             	EORA	$38,Y		; 54 38
00D8  55 38             	LDAA	$38,Y		; 55 38
00DA  56 38             	ANDA	$38,Y		; 56 38
00DC  57 38             	ORAA	$38,Y		; 57 38
00DE  58 38             	CMPA	$38,Y		; 58 38
00E0  59 38             	BITA	$38,Y		; 59 38
00E2  5A 38             	STAA	$38,Y		; 5A 38
00E4  5B 013230         	JMP	$13230,Y	; 5B 013230
00E8  5C 38             	CPX	$38,Y		; 5C 38
00EA  5D 38             	CPY	$38,Y		; 5D 38
00EC  5E 38             	CPZ	$38,Y		; 5E 38
00EE  5F 38             	CPS	$38,Y		; 5F 38

00F0  60 38             	SUBA	$38,Z		; 60 38
00F2  61 38             	ADDA	$38,Z		; 61 38
00F4  62 38             	SBCA	$38,Z		; 62 38
00F6  63 38             	ADCA	$38,Z		; 63 38
00F8  64 38             	EORA	$38,Z		; 64 38
00FA  65 38             	LDAA	$38,Z		; 65 38
00FC  66 38             	ANDA	$38,Z		; 66 38
00FE  67 38             	ORAA	$38,Z		; 67 38
0100  68 38             	CMPA	$38,Z		; 68 38
0102  69 38             	BITA	$38,Z		; 69 38
0104  6A 38             	STAA	$38,Z		; 6A 38
0106  6B 013230         	JMP	$13230,Z	; 6B 013230
010A  6C 38             	CPX	$38,Z		; 6C 38
010C  6D 38             	CPY	$38,Z		; 6D 38
010E  6E 38             	CPZ	$38,Z		; 6E 38
0110  6F 38             	CPS	$38,Z		; 6F 38

0112  70 38             	SUBA	#$38		; 70 38
0114  71 38             	ADDA	#$38		; 71 38
0116  72 38             	SBCA	#$38		; 72 38
0118  73 38             	ADCA	#$38		; 73 38
011A  74 38             	EORA	#$38		; 74 38
011C  75 38             	LDAA	#$38		; 75 38
011E  76 38             	ANDA	#$38		; 76 38
0120  77 38             	ORAA	#$38		; 77 38
0122  78 38             	CMPA	#$38		; 78 38
0124  79 38             	BITA	#$38		; 79 38
0126  7A 3136           	JMP	$3136		; 7A 3136
0129  7B 38             	MAC	#$38		; 7B 38
012B  7C 38             	ADDE	#$38		; 7C 38
012D  7D                	FCB	$7D		; 7D
012E  7E                	FCB	$7E		; 7E
012F  7F                	FCB	$7F		; 7F

0130  80 38             	SUBD	$38,X		; 80 38
0132  81 38             	ADDD	$38,X		; 81 38
0134  82 38             	SBCD	$38,X		; 82 38
0136  83 38             	ADCD	$38,X		; 83 38
0138  84 38             	EORD	$38,X		; 84 38
013A  85 38             	LDD	$38,X		; 85 38
013C  86 38             	ANDD	$38,X		; 86 38
013E  87 38             	ORD	$38,X		; 87 38
0140  88 38             	CPD	$38,X		; 88 38
0142  89 013230         	JSR	$13230,X	; 89 013230
0146  8A 38             	STD	$38,X		; 8A 38
0148  8B 4D 38 FC       	BRSET	$38,X,#$4D,.	; 8B 4D 38 FC
014C  8C 38             	STX	$38,X		; 8C 38
014E  8D 38             	STY	$38,X		; 8D 38
0150  8E 38             	STZ	$38,X		; 8E 38
0152  8F 38             	STS	$38,X		; 8F 38

0154  90 38             	SUBD	$38,Y		; 90 38
0156  91 38             	ADDD	$38,Y		; 91 38
0158  92 38             	SBCD	$38,Y		; 92 38
015A  93 38             	ADCD	$38,Y		; 93 38
015C  94 38             	EORD	$38,Y		; 94 38
015E  95 38             	LDD	$38,Y		; 95 38
0160  96 38             	ANDD	$38,Y		; 96 38
0162  97 38             	ORD	$38,Y		; 97 38
0164  98 38             	CPD	$38,Y		; 98 38
0166  99 013230         	JSR	$13230,Y	; 99 013230
016A  9A 38             	STD	$38,Y		; 9A 38
016C  9B 4D 38 FC       	BRSET	$38,Y,#$4D,.	; 9B 4D 38 FC
0170  9C 38             	STX	$38,Y		; 9C 38
0172  9D 38             	STY	$38,Y		; 9D 38
0174  9E 38             	STZ	$38,Y		; 9E 38
0176  9F 38             	STS	$38,Y		; 9F 38

0178  A0 38             	SUBD	$38,Z		; A0 38
017A  A1 38             	ADDD	$38,Z		; A1 38
017C  A2 38             	SBCD	$38,Z		; A2 38
017E  A3 38             	ADCD	$38,Z		; A3 38
0180  A4 38             	EORD	$38,Z		; A4 38
0182  A5 38             	LDD	$38,Z		; A5 38
0184  A6 38             	ANDD	$38,Z		; A6 38
0186  A7 38             	ORD	$38,Z		; A7 38
0188  A8 38             	CPD	$38,Z		; A8 38
018A  A9 013230         	JSR	$13230,Z	; A9 013230
018E  AA 38             	STD	$38,Z		; AA 38
0190  AB 4D 38 FC       	BRSET	$38,Z,#$4D,.	; AB 4D 38 FC
0194  AC 38             	STX	$38,Z		; AC 38
0196  AD 38             	STY	$38,Z		; AD 38
0198  AE 38             	STZ	$38,Z		; AE 38
019A  AF 38             	STS	$38,Z		; AF 38

019C  B0 FE             	BRA	.		; B0 FE
019E  B1 FE             	BRN	.		; B1 FE
01A0  B2 FE             	BHI	.		; B2 FE
01A2  B3 FE             	BLS	.		; B3 FE
01A4  B4 FE             	BCC	.		; B4 FE - aka BHS
01A6  B5 FE             	BCS	.		; B5 FE - aka BLO
01A8  B6 FE             	BNE	.		; B6 FE
01AA  B7 FE             	BEQ	.		; B7 FE
01AC  B8 FE             	BVC	.		; B8 FE
01AE  B9 FE             	BVS	.		; B9 FE
01B0  BA FE             	BPL	.		; BA FE
01B2  BB FE             	BMI	.		; BB FE
01B4  BC FE             	BGE	.		; BC FE
01B6  BD FE             	BLT	.		; BD FE
01B8  BE FE             	BGT	.		; BE FE
01BA  BF FE             	BLE	.		; BF FE

01BC  C0 38             	SUBB	$38,X		; C0 38
01BE  C1 38             	ADDB	$38,X		; C1 38
01C0  C2 38             	SBCB	$38,X		; C2 38
01C2  C3 38             	ADCB	$38,X		; C3 38
01C4  C4 38             	EORB	$38,X		; C4 38
01C6  C5 38             	LDAB	$38,X		; C5 38
01C8  C6 38             	ANDB	$38,X		; C6 38
01CA  C7 38             	ORAB	$38,X		; C7 38
01CC  C8 38             	CMPB	$38,X		; C8 38
01CE  C9 38             	BITB	$38,X		; C9 38
01D0  CA 38             	STAB	$38,X		; CA 38
01D2  CB 4D 38 FC       	BRCLR	$38,X,#$4D,.	; CB 4D 38 FC
01D6  CC 38             	LDX	$38,X		; CC 38
01D8  CD 38             	LDY	$38,X		; CD 38
01DA  CE 38             	LDZ	$38,X		; CE 38
01DC  CF 38             	LDS	$38,X		; CF 38

01DE  D0 38             	SUBB	$38,Y		; D0 38
01E0  D1 38             	ADDB	$38,Y		; D1 38
01E2  D2 38             	SBCB	$38,Y		; D2 38
01E4  D3 38             	ADCB	$38,Y		; D3 38
01E6  D4 38             	EORB	$38,Y		; D4 38
01E8  D5 38             	LDAB	$38,Y		; D5 38
01EA  D6 38             	ANDB	$38,Y		; D6 38
01EC  D7 38             	ORAB	$38,Y		; D7 38
01EE  D8 38             	CMPB	$38,Y		; D8 38
01F0  D9 38             	BITB	$38,Y		; D9 38
01F2  DA 38             	STAB	$38,Y		; DA 38
01F4  DB 4D 38 FC       	BRCLR	$38,Y,#$4D,.	; DB 4D 38 FC
01F8  DC 38             	LDX	$38,Y		; DC 38
01FA  DD 38             	LDY	$38,Y		; DD 38
01FC  DE 38             	LDZ	$38,Y		; DE 38
01FE  DF 38             	LDS	$38,Y		; DF 38

0200  E0 38             	SUBB	$38,Z		; E0 38
0202  E1 38             	ADDB	$38,Z		; E1 38
0204  E2 38             	SBCB	$38,Z		; E2 38
0206  E3 38             	ADCB	$38,Z		; E3 38
0208  E4 38             	EORB	$38,Z		; E4 38
020A  E5 38             	LDAB	$38,Z		; E5 38
020C  E6 38             	ANDB	$38,Z		; E6 38
020E  E7 38             	ORAB	$38,Z		; E7 38
0210  E8 38             	CMPB	$38,Z		; E8 38
0212  E9 38             	BITB	$38,Z		; E9 38
0214  EA 38             	STAB	$38,Z		; EA 38
0216  EB 4D 38 FC       	BRCLR	$38,Z,#$4D,.	; EB 4D 38 FC
021A  EC 38             	LDX	$38,Z		; EC 38
021C  ED 38             	LDY	$38,Z		; ED 38
021E  EE 38             	LDZ	$38,Z		; EE 38
0220  EF 38             	LDS	$38,Z		; EF 38

0222  F0 38             	SUBB	#$38		; F0 38
0224  F1 38             	ADDB	#$38		; F1 38
0226  F2 38             	SBCB	#$38		; F2 38
0228  F3 38             	ADCB	#$38		; F3 38
022A  F4 38             	EORB	#$38		; F4 38
022C  F5 38             	LDAB	#$38		; F5 38
022E  F6 38             	ANDB	#$38		; F6 38
0230  F7 38             	ORAB	#$38		; F7 38
0232  F8 38             	CMPB	#$38		; F8 38
0234  F9 38             	BITB	#$38		; F9 38
0236  FA 3136           	JSR	$3136		; FA 3136
0239  FB 38             	RMAC	#$38		; FB 38
023B  FC 38             	ADDD	#$38		; FC 38
023D  FD                	FCB	$FD		; FD
023E  FE                	FCB	$FE		; FE
023F  FF                	FCB	$FF		; FF

                        ;	17xx instructions

0240  1700 3136         	COM	$3136,X		; 1700 3136
0244  1701 3136         	DEC	$3136,X		; 1701 3136
0248  1702 3136         	NEG	$3136,X		; 1702 3136
024C  1703 3136         	INC	$3136,X		; 1703 3136
0250  1704 3136         	ASL	$3136,X		; 1704 3136
0254  1705 3136         	CLR	$3136,X		; 1705 3136
0258  1706 3136         	TST	$3136,X		; 1706 3136
025C  1707              	FCB	$17,$07		; 1707
025E  1708 4D 38        	BCLR	$38,X,#$4D	; 1708 4D 38
0262  1709 4D 38        	BSET	$38,X,#$4D	; 1709 4D 38
0266  170A              	FCB	$17,$0A		; 170A
0268  170B              	FCB	$17,$0B		; 170B
026A  170C 3136         	ROL	$3136,X		; 170C 3136
026E  170D 3136         	ASR	$3136,X		; 170D 3136
0272  170E 3136         	ROR	$3136,X		; 170E 3136
0276  170F 3136         	LSR	$3136,X		; 170F 3136

027A  1710 3136         	COM	$3136,Y		; 1710 3136
027E  1711 3136         	DEC	$3136,Y		; 1711 3136
0282  1712 3136         	NEG	$3136,Y		; 1712 3136
0286  1713 3136         	INC	$3136,Y		; 1713 3136
028A  1714 3136         	ASL	$3136,Y		; 1714 3136
028E  1715 3136         	CLR	$3136,Y		; 1715 3136
0292  1716 3136         	TST	$3136,Y		; 1716 3136
0296  1717              	FCB	$17,$17		; 1717
0298  1718 4D 38        	BCLR	$38,Y,#$4D	; 1718 4D 38
029C  1719 4D 38        	BSET	$38,Y,#$4D	; 1719 4D 38
02A0  171A              	FCB	$17,$1A		; 171A
02A2  171B              	FCB	$17,$1B		; 171B
02A4  171C 3136         	ROL	$3136,Y		; 171C 3136
02A8  171D 3136         	ASR	$3136,Y		; 171D 3136
02AC  171E 3136         	ROR	$3136,Y		; 171E 3136
02B0  171F 3136         	LSR	$3136,Y		; 171F 3136

02B4  1720 3136         	COM	$3136,Z		; 1720 3136
02B8  1721 3136         	DEC	$3136,Z		; 1721 3136
02BC  1722 3136         	NEG	$3136,Z		; 1722 3136
02C0  1723 3136         	INC	$3136,Z		; 1723 3136
02C4  1724 3136         	ASL	$3136,Z		; 1724 3136
02C8  1725 3136         	CLR	$3136,Z		; 1725 3136
02CC  1726 3136         	TST	$3136,Z		; 1726 3136
02D0  1727              	FCB	$17,$27		; 1727
02D2  1728 4D 38        	BCLR	$38,Z,#$4D	; 1728 4D 38
02D6  1729 4D 38        	BSET	$38,Z,#$4D	; 1729 4D 38
02DA  172A              	FCB	$17,$2A		; 172A
02DC  172B              	FCB	$17,$2B		; 172B
02DE  172C 3136         	ROL	$3136,Z		; 172C 3136
02E2  172D 3136         	ASR	$3136,Z		; 172D 3136
02E6  172E 3136         	ROR	$3136,Z		; 172E 3136
02EA  172F 3136         	LSR	$3136,Z		; 172F 3136

02EE  1730 3136         	COM	$3136		; 1730 3136
02F2  1731 3136         	DEC	$3136		; 1731 3136
02F6  1732 3136         	NEG	$3136		; 1732 3136
02FA  1733 3136         	INC	$3136		; 1733 3136
02FE  1734 3136         	ASL	$3136		; 1734 3136
0302  1735 3136         	CLR	$3136		; 1735 3136
0306  1736 3136         	TST	$3136		; 1736 3136
030A  1737              	FCB	$17,$37		; 1737
030C  1738              	FCB	$17,$38		; 1738
030E  1739              	FCB	$17,$39		; 1739
0310  173A              	FCB	$17,$3A		; 173A
0312  173B              	FCB	$17,$3B		; 173B
0314  173C 3136         	ROL	$3136		; 173C 3136
0318  173D 3136         	ASR	$3136		; 173D 3136
031C  173E 3136         	ROR	$3136		; 173E 3136
0320  173F 3136         	LSR	$3136		; 173F 3136

0324  1740 3136         	SUBA	$3136,X		; 1740 3136
0328  1741 3136         	ADDA	$3136,X		; 1741 3136
032C  1742 3136         	SBCA	$3136,X		; 1742 3136
0330  1743 3136         	ADCA	$3136,X		; 1743 3136
0334  1744 3136         	EORA	$3136,X		; 1744 3136
0338  1745 3136         	LDAA	$3136,X		; 1745 3136
033C  1746 3136         	ANDA	$3136,X		; 1746 3136
0340  1747 3136         	ORAA	$3136,X		; 1747 3136
0344  1748 3136         	CMPA	$3136,X		; 1748 3136
0348  1749 3136         	BITA	$3136,X		; 1749 3136
034C  174A 3136         	STAA	$3136,X		; 174A 3136
0350  174B              	FCB	$17,$4B		; 174B
0352  174C 3136         	CPX	$3136,X		; 174C 3136
0356  174D 3136         	CPY	$3136,X		; 174D 3136
035A  174E 3136         	CPZ	$3136,X		; 174E 3136
035E  174F 3136         	CPS	$3136,X		; 174F 3136

0362  1750 3136         	SUBA	$3136,Y		; 1750 3136
0366  1751 3136         	ADDA	$3136,Y		; 1751 3136
036A  1752 3136         	SBCA	$3136,Y		; 1752 3136
036E  1753 3136         	ADCA	$3136,Y		; 1753 3136
0372  1754 3136         	EORA	$3136,Y		; 1754 3136
0376  1755 3136         	LDAA	$3136,Y		; 1755 3136
037A  1756 3136         	ANDA	$3136,Y		; 1756 3136
037E  1757 3136         	ORAA	$3136,Y		; 1757 3136
0382  1758 3136         	CMPA	$3136,Y		; 1758 3136
0386  1759 3136         	BITA	$3136,Y		; 1759 3136
038A  175A 3136         	STAA	$3136,Y		; 175A 3136
038E  175B              	FCB	$17,$5B		; 175B
0390  175C 3136         	CPX	$3136,Y		; 175C 3136
0394  175D 3136         	CPY	$3136,Y		; 175D 3136
0398  175E 3136         	CPZ	$3136,Y		; 175E 3136
039C  175F 3136         	CPS	$3136,Y		; 175F 3136

03A0  1760 3136         	SUBA	$3136,Z		; 1760 3136
03A4  1761 3136         	ADDA	$3136,Z		; 1761 3136
03A8  1762 3136         	SBCA	$3136,Z		; 1762 3136
03AC  1763 3136         	ADCA	$3136,Z		; 1763 3136
03B0  1764 3136         	EORA	$3136,Z		; 1764 3136
03B4  1765 3136         	LDAA	$3136,Z		; 1765 3136
03B8  1766 3136         	ANDA	$3136,Z		; 1766 3136
03BC  1767 3136         	ORAA	$3136,Z		; 1767 3136
03C0  1768 3136         	CMPA	$3136,Z		; 1768 3136
03C4  1769 3136         	BITA	$3136,Z		; 1769 3136
03C8  176A 3136         	STAA	$3136,Z		; 176A 3136
03CC  176B              	FCB	$17,$6B		; 176B
03CE  176C 3136         	CPX	$3136,Z		; 176C 3136
03D2  176D 3136         	CPY	$3136,Z		; 176D 3136
03D6  176E 3136         	CPZ	$3136,Z		; 176E 3136
03DA  176F 3136         	CPS	$3136,Z		; 176F 3136

03DE  1770 3136         	SUBA	$3136		; 1770 3136
03E2  1771 3136         	ADDA	$3136		; 1771 3136
03E6  1772 3136         	SBCA	$3136		; 1772 3136
03EA  1773 3136         	ADCA	$3136		; 1773 3136
03EE  1774 3136         	EORA	$3136		; 1774 3136
03F2  1775 3136         	LDAA	$3136		; 1775 3136
03F6  1776 3136         	ANDA	$3136		; 1776 3136
03FA  1777 3136         	ORAA	$3136		; 1777 3136
03FE  1778 3136         	CMPA	$3136		; 1778 3136
0402  1779 3136         	BITA	$3136		; 1779 3136
0406  177A 3136         	STAA	$3136		; 177A 3136
040A  177B              	FCB	$17,$7B		; 177B
040C  177C 3136         	CPX	$3136		; 177C 3136
0410  177D 3136         	CPY	$3136		; 177D 3136
0414  177E 3136         	CPZ	$3136		; 177E 3136
0418  177F 3136         	CPS	$3136		; 177F 3136

041C  1780              	FCB	$17,$80		; 1780
041E  1781              	FCB	$17,$81		; 1781
0420  1782              	FCB	$17,$82		; 1782
0422  1783              	FCB	$17,$83		; 1783
0424  1784              	FCB	$17,$84		; 1784
0426  1785              	FCB	$17,$85		; 1785
0428  1786              	FCB	$17,$86		; 1786
042A  1787              	FCB	$17,$87		; 1787
042C  1788              	FCB	$17,$88		; 1788
042E  1789              	FCB	$17,$89		; 1789
0430  178A              	FCB	$17,$8A		; 178A
0432  178B              	FCB	$17,$8B		; 178B
0434  178C 3136         	STX	$3136,X		; 178C 3136
0438  178D 3136         	STY	$3136,X		; 178D 3136
043C  178E 3136         	STZ	$3136,X		; 178E 3136
0440  178F 3136         	STS	$3136,X		; 178F 3136

0444  1790              	FCB	$17,$90		; 1790
0446  1791              	FCB	$17,$91		; 1791
0448  1792              	FCB	$17,$92		; 1792
044A  1793              	FCB	$17,$93		; 1793
044C  1794              	FCB	$17,$94		; 1794
044E  1795              	FCB	$17,$95		; 1795
0450  1796              	FCB	$17,$96		; 1796
0452  1797              	FCB	$17,$97		; 1797
0454  1798              	FCB	$17,$98		; 1798
0456  1799              	FCB	$17,$99		; 1799
0458  179A              	FCB	$17,$9A		; 179A
045A  179B              	FCB	$17,$9B		; 179B
045C  179C 3136         	STX	$3136,Y		; 179C 3136
0460  179D 3136         	STY	$3136,Y		; 179D 3136
0464  179E 3136         	STZ	$3136,Y		; 179E 3136
0468  179F 3136         	STS	$3136,Y		; 179F 3136

046C  17A0              	FCB	$17,$A0		; 17A0
046E  17A1              	FCB	$17,$A1		; 17A1
0470  17A2              	FCB	$17,$A2		; 17A2
0472  17A3              	FCB	$17,$A3		; 17A3
0474  17A4              	FCB	$17,$A4		; 17A4
0476  17A5              	FCB	$17,$A5		; 17A5
0478  17A6              	FCB	$17,$A6		; 17A6
047A  17A7              	FCB	$17,$A7		; 17A7
047C  17A8              	FCB	$17,$A8		; 17A8
047E  17A9              	FCB	$17,$A9		; 17A9
0480  17AA              	FCB	$17,$AA		; 17AA
0482  17AB              	FCB	$17,$AB		; 17AB
0484  17AC 3136         	STX	$3136,Z		; 17AC 3136
0488  17AD 3136         	STY	$3136,Z		; 17AD 3136
048C  17AE 3136         	STZ	$3136,Z		; 17AE 3136
0490  17AF 3136         	STS	$3136,Z		; 17AF 3136

0494  17B0              	FCB	$17,$B0		; 17B0
0496  17B1              	FCB	$17,$B1		; 17B1
0498  17B2              	FCB	$17,$B2		; 17B2
049A  17B3              	FCB	$17,$B3		; 17B3
049C  17B4              	FCB	$17,$B4		; 17B4
049E  17B5              	FCB	$17,$B5		; 17B5
04A0  17B6              	FCB	$17,$B6		; 17B6
04A2  17B7              	FCB	$17,$B7		; 17B7
04A4  17B8              	FCB	$17,$B8		; 17B8
04A6  17B9              	FCB	$17,$B9		; 17B9
04A8  17BA              	FCB	$17,$BA		; 17BA
04AA  17BB              	FCB	$17,$BB		; 17BB
04AC  17BC 3136         	STX	$3136		; 17BC 3136
04B0  17BD 3136         	STY	$3136		; 17BD 3136
04B4  17BE 3136         	STZ	$3136		; 17BE 3136
04B8  17BF 3136         	STS	$3136		; 17BF 3136

04BC  17C0 3136         	SUBB	$3136,X		; 17C0 3136
04C0  17C1 3136         	ADDB	$3136,X		; 17C1 3136
04C4  17C2 3136         	SBCB	$3136,X		; 17C2 3136
04C8  17C3 3136         	ADCB	$3136,X		; 17C3 3136
04CC  17C4 3136         	EORB	$3136,X		; 17C4 3136
04D0  17C5 3136         	LDAB	$3136,X		; 17C5 3136
04D4  17C6 3136         	ANDB	$3136,X		; 17C6 3136
04D8  17C7 3136         	ORAB	$3136,X		; 17C7 3136
04DC  17C8 3136         	CMPB	$3136,X		; 17C8 3136
04E0  17C9 3136         	BITB	$3136,X		; 17C9 3136
04E4  17CA 3136         	STAB	$3136,X		; 17CA 3136
04E8  17CB              	FCB	$17,$CB		; 17CB
04EA  17CC 3136         	LDX	$3136,X		; 17CC 3136
04EE  17CD 3136         	LDY	$3136,X		; 17CD 3136
04F2  17CE 3136         	LDZ	$3136,X		; 17CE 3136
04F6  17CF 3136         	LDS	$3136,X		; 17CF 3136

04FA  17D0 3136         	SUBB	$3136,Y		; 17D0 3136
04FE  17D1 3136         	ADDB	$3136,Y		; 17D1 3136
0502  17D2 3136         	SBCB	$3136,Y		; 17D2 3136
0506  17D3 3136         	ADCB	$3136,Y		; 17D3 3136
050A  17D4 3136         	EORB	$3136,Y		; 17D4 3136
050E  17D5 3136         	LDAB	$3136,Y		; 17D5 3136
0512  17D6 3136         	ANDB	$3136,Y		; 17D6 3136
0516  17D7 3136         	ORAB	$3136,Y		; 17D7 3136
051A  17D8 3136         	CMPB	$3136,Y		; 17D8 3136
051E  17D9 3136         	BITB	$3136,Y		; 17D9 3136
0522  17DA 3136         	STAB	$3136,Y		; 17DA 3136
0526  17DB              	FCB	$17,$DB		; 17DB
0528  17DC 3136         	LDX	$3136,Y		; 17DC 3136
052C  17DD 3136         	LDY	$3136,Y		; 17DD 3136
0530  17DE 3136         	LDZ	$3136,Y		; 17DE 3136
0534  17DF 3136         	LDS	$3136,Y		; 17DF 3136

0538  17E0 3136         	SUBB	$3136,Z		; 17E0 3136
053C  17E1 3136         	ADDB	$3136,Z		; 17E1 3136
0540  17E2 3136         	SBCB	$3136,Z		; 17E2 3136
0544  17E3 3136         	ADCB	$3136,Z		; 17E3 3136
0548  17E4 3136         	EORB	$3136,Z		; 17E4 3136
054C  17E5 3136         	LDAB	$3136,Z		; 17E5 3136
0550  17E6 3136         	ANDB	$3136,Z		; 17E6 3136
0554  17E7 3136         	ORAB	$3136,Z		; 17E7 3136
0558  17E8 3136         	CMPB	$3136,Z		; 17E8 3136
055C  17E9 3136         	BITB	$3136,Z		; 17E9 3136
0560  17EA 3136         	STAB	$3136,Z		; 17EA 3136
0564  17EB              	FCB	$17,$EB		; 17EB
0566  17EC 3136         	LDX	$3136,Z		; 17EC 3136
056A  17ED 3136         	LDY	$3136,Z		; 17ED 3136
056E  17EE 3136         	LDZ	$3136,Z		; 17EE 3136
0572  17EF 3136         	LDS	$3136,Z		; 17EF 3136

0576  17F0 3136         	SUBB	$3136		; 17F0 3136
057A  17F1 3136         	ADDB	$3136		; 17F1 3136
057E  17F2 3136         	SBCB	$3136		; 17F2 3136
0582  17F3 3136         	ADCB	$3136		; 17F3 3136
0586  17F4 3136         	EORB	$3136		; 17F4 3136
058A  17F5 3136         	LDAB	$3136		; 17F5 3136
058E  17F6 3136         	ANDB	$3136		; 17F6 3136
0592  17F7 3136         	ORAB	$3136		; 17F7 3136
0596  17F8 3136         	CMPB	$3136		; 17F8 3136
059A  17F9 3136         	BITB	$3136		; 17F9 3136
059E  17FA 3136         	STAB	$3136		; 17FA 3136
05A2  17FB              	FCB	$17,$FB		; 17FB
05A4  17FC 3136         	LDX	$3136		; 17FC 3136
05A8  17FD 3136         	LDY	$3136		; 17FD 3136
05AC  17FE 3136         	LDZ	$3136		; 17FE 3136
05B0  17FF 3136         	LDS	$3136		; 17FF 3136

                        ;	27xx instructions

05B4  2700 3136         	COMW	$3136,X		; 2700 3136
05B8  2701 3136         	DECW	$3136,X		; 2701 3136
05BC  2702 3136         	NEGW	$3136,X		; 2702 3136
05C0  2703 3136         	INCW	$3136,X		; 2703 3136
05C4  2704 3136         	ASLW	$3136,X		; 2704 3136
05C8  2705 3136         	CLRW	$3136,X		; 2705 3136
05CC  2706 3136         	TSTW	$3136,X		; 2706 3136
05D0  2707              	FCB	$27,$07		; 2707
05D2  2708 4D 3136      	BCLRW	$3136,X,#$4D	; 2708 4D 3136
05D7  2709 4D 3136      	BSETW	$3136,X,#$4D	; 2709 4D 3136
05DC  270A              	FCB	$27,$0A		; 270A
05DE  270B              	FCB	$27,$0B		; 270B
05E0  270C 3136         	ROLW	$3136,X		; 270C 3136
05E4  270D 3136         	ASRW	$3136,X		; 270D 3136
05E8  270E 3136         	RORW	$3136,X		; 270E 3136
05EC  270F 3136         	LSRW	$3136,X		; 270F 3136

05F0  2710 3136         	COMW	$3136,Y		; 2710 3136
05F4  2711 3136         	DECW	$3136,Y		; 2711 3136
05F8  2712 3136         	NEGW	$3136,Y		; 2712 3136
05FC  2713 3136         	INCW	$3136,Y		; 2713 3136
0600  2714 3136         	ASLW	$3136,Y		; 2714 3136
0604  2715 3136         	CLRW	$3136,Y		; 2715 3136
0608  2716 3136         	TSTW	$3136,Y		; 2716 3136
060C  2717              	FCB	$27,$17		; 2717
060E  2718 4D 3136      	BCLRW	$3136,Y,#$4D	; 2718 4D 3136
0613  2719 4D 3136      	BSETW	$3136,Y,#$4D	; 2719 4D 3136
0618  271A              	FCB	$27,$1A		; 271A
061A  271B              	FCB	$27,$1B		; 271B
061C  271C 3136         	ROLW	$3136,Y		; 271C 3136
0620  271D 3136         	ASRW	$3136,Y		; 271D 3136
0624  271E 3136         	RORW	$3136,Y		; 271E 3136
0628  271F 3136         	LSRW	$3136,Y		; 271F 3136

062C  2720 3136         	COMW	$3136,Z		; 2720 3136
0630  2721 3136         	DECW	$3136,Z		; 2721 3136
0634  2722 3136         	NEGW	$3136,Z		; 2722 3136
0638  2723 3136         	INCW	$3136,Z		; 2723 3136
063C  2724 3136         	ASLW	$3136,Z		; 2724 3136
0640  2725 3136         	CLRW	$3136,Z		; 2725 3136
0644  2726 3136         	TSTW	$3136,Z		; 2726 3136
0648  2727              	FCB	$27,$27		; 2727
064A  2728 4D 3136      	BCLRW	$3136,Z,#$4D	; 2728 4D 3136
064F  2729 4D 3136      	BSETW	$3136,Z,#$4D	; 2729 4D 3136
0654  272A              	FCB	$27,$2A		; 272A
0656  272B              	FCB	$27,$2B		; 272B
0658  272C 3136         	ROLW	$3136,Z		; 272C 3136
065C  272D 3136         	ASRW	$3136,Z		; 272D 3136
0660  272E 3136         	RORW	$3136,Z		; 272E 3136
0664  272F 3136         	LSRW	$3136,Z		; 272F 3136

0668  2730 3136         	COMW	$3136		; 2730 3136
066C  2731 3136         	DECW	$3136		; 2731 3136
0670  2732 3136         	NEGW	$3136		; 2732 3136
0674  2733 3136         	INCW	$3136		; 2733 3136
0678  2734 3136         	ASLW	$3136		; 2734 3136
067C  2735 3136         	CLRW	$3136		; 2735 3136
0680  2736 3136         	TSTW	$3136		; 2736 3136
0684  2737              	FCB	$27,$37		; 2737
0686  2738 4D 3136      	BCLRW	$3136,#$4D	; 2738 4D 3136
068B  2739 4D 3136      	BSETW	$3136,#$4D	; 2739 4D 3136
0690  273A              	FCB	$27,$3A		; 273A
0692  273B              	FCB	$27,$3B		; 273B
0694  273C 3136         	ROLW	$3136		; 273C 3136
0698  273D 3136         	ASRW	$3136		; 273D 3136
069C  273E 3136         	RORW	$3136		; 273E 3136
06A0  273F 3136         	LSRW	$3136		; 273F 3136

06A4  2740              	SUBA	E,X		; 2740
06A6  2741              	ADDA	E,X		; 2741
06A8  2742              	SBCA	E,X		; 2742
06AA  2743              	ADCA	E,X		; 2743
06AC  2744              	EORA	E,X		; 2744
06AE  2745              	LDAA	E,X		; 2745
06B0  2746              	ANDA	E,X		; 2746
06B2  2747              	ORAA	E,X		; 2747
06B4  2748              	CMPA	E,X		; 2748
06B6  2749              	BITA	E,X		; 2749
06B8  274A              	STAA	E,X		; 274A
06BA  274B              	FCB	$27,$4B		; 274B
06BC  27CC              	NOP			; 274C - TXX?
06BE  27CD              	TYX			; 274D
06C0  27CE              	TZX			; 274E
06C2  27CF              	TSX			; 274F

06C4  2750              	SUBA	E,Y		; 2750
06C6  2751              	ADDA	E,Y		; 2751
06C8  2752              	SBCA	E,Y		; 2752
06CA  2753              	ADCA	E,Y		; 2753
06CC  2754              	EORA	E,Y		; 2754
06CE  2755              	LDAA	E,Y		; 2755
06D0  2756              	ANDA	E,Y		; 2756
06D2  2757              	ORAA	E,Y		; 2757
06D4  2758              	CMPA	E,Y		; 2758
06D6  2759              	BITA	E,Y		; 2759
06D8  275A              	STAA	E,Y		; 275A
06DA  275B              	FCB	$27,$5B		; 275B
06DC  275C              	TXY			; 275C
06DE  275D              	FCB	$27,$5D		; 275D
06E0  275E              	TZY			; 275E
06E2  275F              	TSY			; 275F

06E4  2760              	SUBA	E,Z		; 2760
06E6  2761              	ADDA	E,Z		; 2761
06E8  2762              	SBCA	E,Z		; 2762
06EA  2763              	ADCA	E,Z		; 2763
06EC  2764              	EORA	E,Z		; 2764
06EE  2765              	LDAA	E,Z		; 2765
06F0  2766              	ANDA	E,Z		; 2766
06F2  2767              	ORAA	E,Z		; 2767
06F4  2768              	CMPA	E,Z		; 2768
06F6  2769              	BITA	E,Z		; 2769
06F8  276A              	STAA	E,Z		; 276A
06FA  276B              	FCB	$27,$6B		; 276B
06FC  276C              	TXZ			; 276C
06FE  276D              	TYZ			; 276D
0700  276E              	FCB	$27,$6E		; 276E
0702  276F              	TSZ			; 276F

0704  2770              	COME			; 2770
0706  2771              	DECE			; 2771
0708  2772              	NEGE			; 2772
070A  2773              	INCE			; 2773
070C  2774              	ASLE			; 2774
070E  2775              	CLRE			; 2775
0710  2776              	TSTE			; 2776
0712  2777              	RTI			; 2777
0714  2778              	ADE			; 2778
0716  2779              	SDE			; 2779
0718  277A              	XGDE			; 277A
071A  277B              	TDE			; 277B
071C  277C              	ROLE			; 277C
071E  277D              	ASRE			; 277D
0720  277E              	RORE			; 277E
0722  277F              	LSRE			; 277F

0724  2780              	SUBD	E,X		; 2780
0726  2781              	ADDD	E,X		; 2781
0728  2782              	SBCD	E,X		; 2782
072A  2783              	ADCD	E,X		; 2783
072C  2784              	EORD	E,X		; 2784
072E  2785              	LDD	E,X		; 2785
0730  2786              	ANDD	E,X		; 2786
0732  2787              	ORD	E,X		; 2787
0734  2788              	CPD	E,X		; 2788
0736  2789              	FCB	$27,$89		; 2789
0738  278A              	STD	E,X		; 278A
073A  278B              	FCB	$27,$8B		; 278B
073C  278C              	FCB	$27,$8C		; 278C
073E  278D              	FCB	$27,$8D		; 278D
0740  278E              	FCB	$27,$8E		; 278E
0742  278F              	FCB	$27,$8F		; 278F

0744  2790              	SUBD	E,Y		; 2790
0746  2791              	ADDD	E,Y		; 2791
0748  2792              	SBCD	E,Y		; 2792
074A  2793              	ADCD	E,Y		; 2793
074C  2794              	EORD	E,Y		; 2794
074E  2795              	LDD	E,Y		; 2795
0750  2796              	ANDD	E,Y		; 2796
0752  2797              	ORD	E,Y		; 2797
0754  2798              	CPD	E,Y		; 2798
0756  2799              	FCB	$27,$99		; 2799
0758  279A              	STD	E,Y		; 279A
075A  279B              	FCB	$27,$9B		; 279B
075C  279C              	FCB	$27,$9C		; 279C
075E  279D              	FCB	$27,$9D		; 279D
0760  279E              	FCB	$27,$9E		; 279E
0762  279F              	FCB	$27,$9F		; 279F

0764  27A0              	SUBD	E,Z		; 27A0
0766  27A1              	ADDD	E,Z		; 27A1
0768  27A2              	SBCD	E,Z		; 27A2
076A  27A3              	ADCD	E,Z		; 27A3
076C  27A4              	EORD	E,Z		; 27A4
076E  27A5              	LDD	E,Z		; 27A5
0770  27A6              	ANDD	E,Z		; 27A6
0772  27A7              	ORD	E,Z		; 27A7
0774  27A8              	CPD	E,Z		; 27A8
0776  27A9              	FCB	$27,$A9		; 27A9
0778  27AA              	STD	E,Z		; 27AA
077A  27AB              	FCB	$27,$AB		; 27AB
077C  27AC              	FCB	$27,$AC		; 27AC
077E  27AD              	FCB	$27,$AD		; 27AD
0780  27AE              	FCB	$27,$AE		; 27AE
0782  27AF              	FCB	$27,$AF		; 27AF

0784  27B0              	LDHI			; 27B0
0786  27B1              	TEDM			; 27B1
0788  27B2              	TEM			; 27B2
078A  27B3              	TMXED			; 27B3
078C  27B4              	TMER			; 27B4
078E  27B5              	TMET			; 27B5
0790  27B6              	ASLM			; 27B6
0792  27B7              	CLRM			; 27B7
0794  27B8              	PSHMAC			; 27B8
0796  27B9              	PULMAC			; 27B9
0798  27BA              	ASRM			; 27BA
079A  27BB              	TEKB			; 27BB
079C  27BC              	FCB	$27,$BC		; 27BC
079E  27BD              	FCB	$27,$BD		; 27BD
07A0  27BE              	FCB	$27,$BE		; 27BE
07A2  27BF              	FCB	$27,$BF		; 27BF

07A4  27C0              	SUBB	E,X		; 27C0
07A6  27C1              	ADDB	E,X		; 27C1
07A8  27C2              	SBCB	E,X		; 27C2
07AA  27C3              	ADCB	E,X		; 27C3
07AC  27C4              	EORB	E,X		; 27C4
07AE  27C5              	LDAB	E,X		; 27C5
07B0  27C6              	ANDB	E,X		; 27C6
07B2  27C7              	ORAB	E,X		; 27C7
07B4  27C8              	CMPB	E,X		; 27C8
07B6  27C9              	BITB	E,X		; 27C9
07B8  27CA              	STAB	E,X		; 27CA
07BA  27CB              	FCB	$27,$CB		; 27CB
07BC  27CC              	FCB	$27,$CC		; 27CC
07BE  27CD              	FCB	$27,$CD		; 27CD
07C0  27CE              	FCB	$27,$CE		; 27CE
07C2  27CF              	FCB	$27,$CF		; 27CF

07C4  27D0              	SUBB	E,Y		; 27D0
07C6  27D1              	ADDB	E,Y		; 27D1
07C8  27D2              	SBCB	E,Y		; 27D2
07CA  27D3              	ADCB	E,Y		; 27D3
07CC  27D4              	EORB	E,Y		; 27D4
07CE  27D5              	LDAB	E,Y		; 27D5
07D0  27D6              	ANDB	E,Y		; 27D6
07D2  27D7              	ORAB	E,Y		; 27D7
07D4  27D8              	CMPB	E,Y		; 27D8
07D6  27D9              	BITB	E,Y		; 27D9
07D8  27DA              	STAB	E,Y		; 27DA
07DA  27DB              	FCB	$27,$DB		; 27DB
07DC  27DC              	FCB	$27,$DC		; 27DC
07DE  27DD              	FCB	$27,$DD		; 27DD
07E0  27DE              	FCB	$27,$DE		; 27DE
07E2  27DF              	FCB	$27,$DF		; 27DF

07E4  27E0              	SUBB	E,Z		; 27E0
07E6  27E1              	ADDB	E,Z		; 27E1
07E8  27E2              	SBCB	E,Z		; 27E2
07EA  27E3              	ADCB	E,Z		; 27E3
07EC  27E4              	EORB	E,Z		; 27E4
07EE  27E5              	LDAB	E,Z		; 27E5
07F0  27E6              	ANDB	E,Z		; 27E6
07F2  27E7              	ORAB	E,Z		; 27E7
07F4  27E8              	CMPB	E,Z		; 27E8
07F6  27E9              	BITB	E,Z		; 27E9
07F8  27EA              	STAB	E,Z		; 27EA
07FA  27EB              	FCB	$27,$EB		; 27EB
07FC  27EC              	FCB	$27,$EC		; 27EC
07FE  27ED              	FCB	$27,$ED		; 27ED
0800  27EE              	FCB	$27,$EE		; 27EE
0802  27EF              	FCB	$27,$EF		; 27EF

0804  27F0              	COMD			; 27F0
0806  27F1              	LPSTOP			; 27F1
0808  27F2              	NEGD			; 27F2
080A  27F3              	WAI			; 27F3
080C  27F4              	ASLD			; 27F4
080E  27F5              	CLRD			; 27F5
0810  27F6              	TSTD			; 27F6
0812  27F7              	RTS			; 27F7
0814  27F8              	SXT			; 27F8
0816  27F9 FFFC         	LBSR	.		; 27F9 FFFC
081A  27FA              	TBEK			; 27FA
081C  27FB              	TED			; 27FB
081E  27FC              	ROLD			; 27FC
0820  27FD              	ASRD			; 27FD
0822  27FE              	RORD			; 27FE
0824  27FF              	LSRD			; 27FF

                        ;	37xx instructions

0826  3700              	COMA			; 3700
0828  3701              	DECA			; 3701
082A  3702              	NEGA			; 3702
082C  3703              	INCA			; 3703
082E  3704              	ASLA			; 3704
0830  3705              	CLRA			; 3705
0832  3706              	TSTA			; 3706
0834  3707              	TBA			; 3707
0836  3708              	PSHA			; 3708
0838  3709              	PULA			; 3709
083A  370A              	SBA			; 370A
083C  370B              	ABA			; 370B
083E  370C              	ROLA			; 370C
0840  370D              	ASRA			; 370D
0842  370E              	RORA			; 370E
0844  370F              	LSRA			; 370F

0846  3710              	COMB			; 3710
0848  3711              	DECB			; 3711
084A  3712              	NEGB			; 3712
084C  3713              	INCB			; 3713
084E  3714              	ASLB			; 3714
0850  3715              	CLRB			; 3715
0852  3716              	TSTB			; 3716
0854  3717              	TAB			; 3717
0856  3718              	PSHB			; 3718
0858  3719              	PULB			; 3719
085A  371A              	XGAB			; 371A
085C  371B              	CBA			; 371B
085E  371C              	ROLB			; 371C
0860  371D              	ASRB			; 371D
0862  371E              	RORB			; 371E
0864  371F              	LSRB			; 371F

0866  3720              	SWI			; 3720
0868  3721              	DAA			; 3721
086A  3722              	ACE			; 3722
086C  3723              	ACED			; 3723
086E  3724              	MUL			; 3724
0870  3725              	EMUL			; 3725
0872  3726              	EMULS			; 3726
0874  3727              	FMULS			; 3727
0876  3728              	EDIV			; 3728
0878  3729              	EDIVS			; 3729
087A  372A              	IDIV			; 372A
087C  372B              	FDIV			; 372B
087E  372C              	TPD			; 372C
0880  372D              	TDP			; 372D
0882  372E              	FCB	$37,$2E		; 372E
0884  372F              	TDMSK			; 372F

0886  3730 3136         	SUBE	#$3136		; 3730 3136
088A  3731 3136         	ADDE	#$3136		; 3731 3136
088E  3732 3136         	SBCE	#$3136		; 3732 3136
0892  3733 3136         	ADCE	#$3136		; 3733 3136
0896  3734 3136         	EORE	#$3136		; 3734 3136
089A  3735 3136         	LDE	#$3136		; 3735 3136
089E  3736 3136         	ANDE	#$3136		; 3736 3136
08A2  3737 3136         	ORE	#$3136		; 3737 3136
08A6  3738 3136         	CPE	#$3136		; 3738 3136
08AA  3739              	FCB	$37,$39		; 3739
08AC  373A 3136         	ANDP	#$3136		; 373A 3136
08B0  373B 3136         	ORP	#$3136		; 373B 3136
08B4  373C 3136         	AIX	#$3136		; 373C 3136
08B8  373D 3136         	AIY	#$3136		; 373D 3136
08BC  373E 3136         	AIZ	#$3136		; 373E 3136
08C0  373F 3136         	AIS	#$3136		; 373F 3136

08C4  3740 3136         	SUBE	$3136,X		; 3740 3136
08C8  3741 3136         	ADDE	$3136,X		; 3741 3136
08CC  3742 3136         	SBCE	$3136,X		; 3742 3136
08D0  3743 3136         	ADCE	$3136,X		; 3743 3136
08D4  3744 3136         	EORE	$3136,X		; 3744 3136
08D8  3745 3136         	LDE	$3136,X		; 3745 3136
08DC  3746 3136         	ANDE	$3136,X		; 3746 3136
08E0  3747 3136         	ORE	$3136,X		; 3747 3136
08E4  3748 3136         	CPE	$3136,X		; 3748 3136
08E8  3749              	FCB	$37,$49		; 3749
08EA  374A 3136         	STE	$3136,X		; 374A 3136
08EE  374B              	FCB	$37,$4B		; 374B
08F0  374C              	XGEX			; 374C
08F2  374D              	AEX			; 374D
08F4  374E              	TXS			; 374E
08F6  374F              	ABX			; 374F

08F8  3750 3136         	SUBE	$3136,Y		; 3750 3136
08FC  3751 3136         	ADDE	$3136,Y		; 3751 3136
0900  3752 3136         	SBCE	$3136,Y		; 3752 3136
0904  3753 3136         	ADCE	$3136,Y		; 3753 3136
0908  3754 3136         	EORE	$3136,Y		; 3754 3136
090C  3755 3136         	LDE	$3136,Y		; 3755 3136
0910  3756 3136         	ANDE	$3136,Y		; 3756 3136
0914  3757 3136         	ORE	$3136,Y		; 3757 3136
0918  3758 3136         	CPE	$3136,Y		; 3758 3136
091C  3759              	FCB	$37,$59		; 3759
091E  375A 3136         	STE	$3136,Y		; 375A 3136
0922  375B              	FCB	$37,$5B		; 375B
0924  375C              	XGEY			; 375C
0926  375D              	AEY			; 375D
0928  375E              	TYS			; 375E
092A  375F              	ABY			; 375F

092C  3760 3136         	SUBE	$3136,Z		; 3760 3136
0930  3761 3136         	ADDE	$3136,Z		; 3761 3136
0934  3762 3136         	SBCE	$3136,Z		; 3762 3136
0938  3763 3136         	ADCE	$3136,Z		; 3763 3136
093C  3764 3136         	EORE	$3136,Z		; 3764 3136
0940  3765 3136         	LDE	$3136,Z		; 3765 3136
0944  3766 3136         	ANDE	$3136,Z		; 3766 3136
0948  3767 3136         	ORE	$3136,Z		; 3767 3136
094C  3768 3136         	CPE	$3136,Z		; 3768 3136
0950  3769              	FCB	$37,$69		; 3769
0952  376A 3136         	STE	$3136,Z		; 376A 3136
0956  376B              	FCB	$37,$6B		; 376B
0958  376C              	XGEZ			; 376C
095A  376D              	AEZ			; 376D
095C  376E              	TZS			; 376E
095E  376F              	ABZ			; 376F

0960  3770 3136         	SUBE	$3136		; 3770 3136
0964  3771 3136         	ADDE	$3136		; 3771 3136
0968  3772 3136         	SBCE	$3136		; 3772 3136
096C  3773 3136         	ADCE	$3136		; 3773 3136
0970  3774 3136         	EORE	$3136		; 3774 3136
0974  3775 3136         	LDE	$3136		; 3775 3136
0978  3776 3136         	ANDE	$3136		; 3776 3136
097C  3777 3136         	ORE	$3136		; 3777 3136
0980  3778 3136         	CPE	$3136		; 3778 3136
0984  3779              	FCB	$37,$79		; 3779
0986  377A 3136         	STE	$3136		; 377A 3136
098A  377B              	FCB	$37,$7B		; 377B
098C  377C 3136         	CPX	#$3136		; 377C 3136
0990  377D 3136         	CPY	#$3136		; 377D 3136
0994  377E 3136         	CPZ	#$3136		; 377E 3136
0998  377F 3136         	CPS	#$3136		; 377F 3136

099C  3780 FFFC         	LBRA	.		; 3780 FFFC
09A0  3781 FFFC         	LBRN	.		; 3781 FFFC
09A4  3782 FFFC         	LBHI	.		; 3782 FFFC
09A8  3783 FFFC         	LBLS	.		; 3783 FFFC
09AC  3784 FFFC         	LBCC	.		; 3784 FFFC - aka LBHS
09B0  3785 FFFC         	LBCS	.		; 3785 FFFC - aka LBLO
09B4  3786 FFFC         	LBNE	.		; 3786 FFFC
09B8  3787 FFFC         	LBEQ	.		; 3787 FFFC
09BC  3788 FFFC         	LBVC	.		; 3788 FFFC
09C0  3789 FFFC         	LBVS	.		; 3789 FFFC
09C4  378A FFFC         	LBPL	.		; 378A FFFC
09C8  378B FFFC         	LBMI	.		; 378B FFFC
09CC  378C FFFC         	LBGE	.		; 378C FFFC
09D0  378D FFFC         	LBLT	.		; 378D FFFC
09D4  378E FFFC         	LBGT	.		; 378E FFFC
09D8  378F FFFC         	LBLE	.		; 378F FFFC

09DC  3790 FFFC         	LBMV	.		; 3790 FFFC
09E0  3791 FFFC         	LBEV	.		; 3791 FFFC
09E4  3792              	FCB	$37,$92		; 3792
09E6  3793              	FCB	$37,$93		; 3793
09E8  3794              	FCB	$37,$94		; 3794
09EA  3795              	FCB	$37,$95		; 3795
09EC  3796              	FCB	$37,$96		; 3796
09EE  3797              	FCB	$37,$97		; 3797
09F0  3798              	FCB	$37,$98		; 3798
09F2  3799              	FCB	$37,$99		; 3799
09F4  379A              	FCB	$37,$9A		; 379A
09F6  379B              	FCB	$37,$9B		; 379B
09F8  379C              	TBXK			; 379C
09FA  379D              	TBYK			; 379D
09FC  379E              	TBZK			; 379E
09FE  379F              	TBSK			; 379F

0A00  37A0              	FCB	$37,$A0		; 37A0
0A02  37A1              	FCB	$37,$A1		; 37A1
0A04  37A2              	FCB	$37,$A2		; 37A2
0A06  37A3              	FCB	$37,$A3		; 37A3
0A08  37A4              	FCB	$37,$A4		; 37A4
0A0A  37A5              	FCB	$37,$A5		; 37A5
0A0C  37A6              	BGND			; 37A6
0A0E  37A7              	FCB	$37,$A7		; 37A7
0A10  37A8              	FCB	$37,$A8		; 37A8
0A12  37A9              	FCB	$37,$A9		; 37A9
0A14  37AA              	FCB	$37,$AA		; 37AA
0A16  37AB              	FCB	$37,$AB		; 37AB
0A18  37AC              	TXKB			; 37AC
0A1A  37AD              	TYKB			; 37AD
0A1C  37AE              	TZKB			; 37AE
0A1E  37AF              	TSKB			; 37AF

0A20  37B0 3136         	SUBD	#$3136		; 37B0 3136
0A24  37B1 3136         	ADDD	#$3136		; 37B1 3136
0A28  37B2 3136         	SBCD	#$3136		; 37B2 3136
0A2C  37B3 3136         	ADCD	#$3136		; 37B3 3136
0A30  37B4 3136         	EORD	#$3136		; 37B4 3136
0A34  37B5 3136         	LDD	#$3136		; 37B5 3136
0A38  37B6 3136         	ANDD	#$3136		; 37B6 3136
0A3C  37B7 3136         	ORD	#$3136		; 37B7 3136
0A40  37B8 3136         	CPD	#$3136		; 37B8 3136
0A44  37B9              	FCB	$37,$B9		; 37B9
0A46  37BA              	FCB	$37,$BA		; 37BA
0A48  37BB              	FCB	$37,$BB		; 37BB
0A4A  37BC 3136         	LDX	#$3136		; 37BC 3136
0A4E  37BD 3136         	LDY	#$3136		; 37BD 3136
0A52  37BE 3136         	LDZ	#$3136		; 37BE 3136
0A56  37FF 3136         	LDS	#$3136		; 37BF 3136

0A5A  37C0 3136         	SUBD	$3136,X		; 37C0 3136
0A5E  37C1 3136         	ADDD	$3136,X		; 37C1 3136
0A62  37C2 3136         	SBCD	$3136,X		; 37C2 3136
0A66  37C3 3136         	ADCD	$3136,X		; 37C3 3136
0A6A  37C4 3136         	EORD	$3136,X		; 37C4 3136
0A6E  37C5 3136         	LDD	$3136,X		; 37C5 3136
0A72  37C6 3136         	ANDD	$3136,X		; 37C6 3136
0A76  37C7 3136         	ORD	$3136,X		; 37C7 3136
0A7A  37C8 3136         	CPD	$3136,X		; 37C8 3136
0A7E  37C9              	FCB	$37,$C9		; 37C9
0A80  37CA 3136         	STD	$3136,X		; 37CA 3136
0A84  37CB              	FCB	$37,$CB		; 37CB
0A86  37CC              	XGDX			; 37CC
0A88  37CD              	ADX			; 37CD
0A8A  37CE              	FCB	$37,$CE		; 37CE
0A8C  37CF              	FCB	$37,$CF		; 37CF

0A8E  37D0 3136         	SUBD	$3136,Y		; 37D0 3136
0A92  37D1 3136         	ADDD	$3136,Y		; 37D1 3136
0A96  37D2 3136         	SBCD	$3136,Y		; 37D2 3136
0A9A  37D3 3136         	ADCD	$3136,Y		; 37D3 3136
0A9E  37D4 3136         	EORD	$3136,Y		; 37D4 3136
0AA2  37D5 3136         	LDD	$3136,Y		; 37D5 3136
0AA6  37D6 3136         	ANDD	$3136,Y		; 37D6 3136
0AAA  37D7 3136         	ORD	$3136,Y		; 37D7 3136
0AAE  37D8 3136         	CPD	$3136,Y		; 37D8 3136
0AB2  37D9              	FCB	$37,$D9		; 37D9
0AB4  37DA 3136         	STD	$3136,Y		; 37DA 3136
0AB8  37DB              	FCB	$37,$DB		; 37DB
0ABA  37DC              	XGDY			; 37DC
0ABC  37DD              	ADY			; 37DD
0ABE  37DE              	FCB	$37,$DE		; 37DE
0AC0  37DF              	FCB	$37,$DF		; 37DF

0AC2  37E0 3136         	SUBD	$3136,Z		; 37E0 3136
0AC6  37E1 3136         	ADDD	$3136,Z		; 37E1 3136
0ACA  37E2 3136         	SBCD	$3136,Z		; 37E2 3136
0ACE  37E3 3136         	ADCD	$3136,Z		; 37E3 3136
0AD2  37E4 3136         	EORD	$3136,Z		; 37E4 3136
0AD6  37E5 3136         	LDD	$3136,Z		; 37E5 3136
0ADA  37E6 3136         	ANDD	$3136,Z		; 37E6 3136
0ADE  37E7 3136         	ORD	$3136,Z		; 37E7 3136
0AE2  37E8 3136         	CPD	$3136,Z		; 37E8 3136
0AE6  37E9              	FCB	$37,$E9		; 37E9
0AE8  37EA 3136         	STD	$3136,Z		; 37EA 3136
0AEC  37EB              	FCB	$37,$EB		; 37EB
0AEE  37EC              	XGDZ			; 37EC
0AF0  37ED              	ADZ			; 37ED
0AF2  37EE              	FCB	$37,$EE		; 37EE
0AF4  37EF              	FCB	$37,$EF		; 37EF

0AF6  37F0 3136         	SUBD	$3136		; 37F0 3136
0AFA  37F1 3136         	ADDD	$3136		; 37F1 3136
0AFE  37F2 3136         	SBCD	$3136		; 37F2 3136
0B02  37F3 3136         	ADCD	$3136		; 37F3 3136
0B06  37F4 3136         	EORD	$3136		; 37F4 3136
0B0A  37F5 3136         	LDD	$3136		; 37F5 3136
0B0E  37F6 3136         	ANDD	$3136		; 37F6 3136
0B12  37F7 3136         	ORD	$3136		; 37F7 3136
0B16  37F8 3136         	CPD	$3136		; 37F8 3136
0B1A  37F9              	FCB	$37,$F9		; 37F9
0B1C  37FA 3136         	STD	$3136		; 37FA 3136
0B20  37FB              	FCB	$37,$FB		; 37FB
0B22  37FC              	TPA			; 37FC
0B24  37FD              	TAP			; 37FD
0B26  37FE 3136 1234    	MOVB	$3136,$1234	; 37FE 3136 1234
0B2C  37FF 3136 1234    	MOVW	$3136,$1234	; 37FF 3136 1234

                        ;	other stuff

0B32  7B 38             	MAC	3,8		; 7B 38
0B34  FB 38             	RMAC	3,8		; FB 38

00000 Total Error(s)

